target datalayout = "e-m:e-p270:32:32-p271:32:32-p272:64:64-i64:64-i128:128-f80:128-n8:16:32:64-S128"
target triple = "x86_64-pc-linux-gnu"

; Function Attrs: inlinehint nounwind uwtable
define internal void @idctRowCondDC_int16_8bit(ptr noundef %0, i32 noundef %1) #2 {
  %3 = alloca ptr, align 8
  %4 = alloca i32, align 4
  %5 = alloca i32, align 4
  %6 = alloca i32, align 4
  %7 = alloca i32, align 4
  %8 = alloca i32, align 4
  %9 = alloca i32, align 4
  %10 = alloca i32, align 4
  %11 = alloca i32, align 4
  %12 = alloca i32, align 4
  %13 = alloca i32, align 4
  %14 = alloca i32, align 4
  store ptr %0, ptr %3, align 8, !tbaa !11
  store i32 %1, ptr %4, align 4, !tbaa !13
  call void @llvm.lifetime.start.p0(i64 4, ptr %5) #4
  call void @llvm.lifetime.start.p0(i64 4, ptr %6) #4
  call void @llvm.lifetime.start.p0(i64 4, ptr %7) #4
  call void @llvm.lifetime.start.p0(i64 4, ptr %8) #4
  call void @llvm.lifetime.start.p0(i64 4, ptr %9) #4
  call void @llvm.lifetime.start.p0(i64 4, ptr %10) #4
  call void @llvm.lifetime.start.p0(i64 4, ptr %11) #4
  call void @llvm.lifetime.start.p0(i64 4, ptr %12) #4
  %15 = load ptr, ptr %3, align 8, !tbaa !11
  %16 = getelementptr inbounds i16, ptr %15, i64 2
  %17 = load i32, ptr %16, align 4, !tbaa !18
  %18 = load ptr, ptr %3, align 8, !tbaa !11
  %19 = getelementptr inbounds i16, ptr %18, i64 4
  %20 = load i32, ptr %19, align 4, !tbaa !18
  %21 = or i32 %17, %20
  %22 = load ptr, ptr %3, align 8, !tbaa !11
  %23 = getelementptr inbounds i16, ptr %22, i64 6
  %24 = load i32, ptr %23, align 4, !tbaa !18
  %25 = or i32 %21, %24
  %26 = load ptr, ptr %3, align 8, !tbaa !11
  %27 = getelementptr inbounds i16, ptr %26, i64 1
  %28 = load i16, ptr %27, align 2, !tbaa !19
  %29 = sext i16 %28 to i32
  %30 = or i32 %25, %29
  %31 = icmp ne i32 %30, 0
  br i1 %31, label %76, label %32

32:                                               ; preds = %2
  call void @llvm.lifetime.start.p0(i64 4, ptr %13) #4
  %33 = load i32, ptr %4, align 4, !tbaa !13
  %34 = sub nsw i32 3, %33
  %35 = icmp sge i32 %34, 0
  br i1 %35, label %36, label %46

36:                                               ; preds = %32
  %37 = load ptr, ptr %3, align 8, !tbaa !11
  %38 = getelementptr inbounds i16, ptr %37, i64 0
  %39 = load i16, ptr %38, align 2, !tbaa !19
  %40 = sext i16 %39 to i32
  %41 = load i32, ptr %4, align 4, !tbaa !13
  %42 = sub nsw i32 3, %41
  %43 = shl i32 1, %42
  %44 = mul nsw i32 %40, %43
  %45 = and i32 %44, 65535
  store i32 %45, ptr %13, align 4, !tbaa !13
  br label %60

46:                                               ; preds = %32
  %47 = load ptr, ptr %3, align 8, !tbaa !11
  %48 = getelementptr inbounds i16, ptr %47, i64 0
  %49 = load i16, ptr %48, align 2, !tbaa !19
  %50 = sext i16 %49 to i32
  %51 = load i32, ptr %4, align 4, !tbaa !13
  %52 = sub nsw i32 %51, 3
  %53 = sub nsw i32 %52, 1
  %54 = shl i32 1, %53
  %55 = add nsw i32 %50, %54
  %56 = load i32, ptr %4, align 4, !tbaa !13
  %57 = sub nsw i32 %56, 3
  %58 = ashr i32 %55, %57
  %59 = and i32 %58, 65535
  store i32 %59, ptr %13, align 4, !tbaa !13
  br label %60

60:                                               ; preds = %46, %36
  %61 = load i32, ptr %13, align 4, !tbaa !13
  %62 = mul i32 %61, 65536
  %63 = load i32, ptr %13, align 4, !tbaa !13
  %64 = add i32 %63, %62
  store i32 %64, ptr %13, align 4, !tbaa !13
  %65 = load i32, ptr %13, align 4, !tbaa !13
  %66 = load ptr, ptr %3, align 8, !tbaa !11
  store i32 %65, ptr %66, align 4, !tbaa !18
  %67 = load i32, ptr %13, align 4, !tbaa !13
  %68 = load ptr, ptr %3, align 8, !tbaa !11
  %69 = getelementptr inbounds i16, ptr %68, i64 2
  store i32 %67, ptr %69, align 4, !tbaa !18
  %70 = load i32, ptr %13, align 4, !tbaa !13
  %71 = load ptr, ptr %3, align 8, !tbaa !11
  %72 = getelementptr inbounds i16, ptr %71, i64 4
  store i32 %70, ptr %72, align 4, !tbaa !18
  %73 = load i32, ptr %13, align 4, !tbaa !13
  %74 = load ptr, ptr %3, align 8, !tbaa !11
  %75 = getelementptr inbounds i16, ptr %74, i64 6
  store i32 %73, ptr %75, align 4, !tbaa !18
  store i32 1, ptr %14, align 4
  call void @llvm.lifetime.end.p0(i64 4, ptr %13) #4
  br label %352

76:                                               ; preds = %2
  %77 = load ptr, ptr %3, align 8, !tbaa !11
  %78 = getelementptr inbounds i16, ptr %77, i64 0
  %79 = load i16, ptr %78, align 2, !tbaa !19
  %80 = sext i16 %79 to i32
  %81 = mul i32 16383, %80
  %82 = load i32, ptr %4, align 4, !tbaa !13
  %83 = add nsw i32 11, %82
  %84 = sub nsw i32 %83, 1
  %85 = shl i32 1, %84
  %86 = add i32 %81, %85
  store i32 %86, ptr %5, align 4, !tbaa !13
  %87 = load i32, ptr %5, align 4, !tbaa !13
  store i32 %87, ptr %6, align 4, !tbaa !13
  %88 = load i32, ptr %5, align 4, !tbaa !13
  store i32 %88, ptr %7, align 4, !tbaa !13
  %89 = load i32, ptr %5, align 4, !tbaa !13
  store i32 %89, ptr %8, align 4, !tbaa !13
  %90 = load ptr, ptr %3, align 8, !tbaa !11
  %91 = getelementptr inbounds i16, ptr %90, i64 2
  %92 = load i16, ptr %91, align 2, !tbaa !19
  %93 = sext i16 %92 to i32
  %94 = mul i32 21407, %93
  %95 = load i32, ptr %5, align 4, !tbaa !13
  %96 = add i32 %95, %94
  store i32 %96, ptr %5, align 4, !tbaa !13
  %97 = load ptr, ptr %3, align 8, !tbaa !11
  %98 = getelementptr inbounds i16, ptr %97, i64 2
  %99 = load i16, ptr %98, align 2, !tbaa !19
  %100 = sext i16 %99 to i32
  %101 = mul i32 8867, %100
  %102 = load i32, ptr %6, align 4, !tbaa !13
  %103 = add i32 %102, %101
  store i32 %103, ptr %6, align 4, !tbaa !13
  %104 = load ptr, ptr %3, align 8, !tbaa !11
  %105 = getelementptr inbounds i16, ptr %104, i64 2
  %106 = load i16, ptr %105, align 2, !tbaa !19
  %107 = sext i16 %106 to i32
  %108 = mul i32 8867, %107
  %109 = load i32, ptr %7, align 4, !tbaa !13
  %110 = sub i32 %109, %108
  store i32 %110, ptr %7, align 4, !tbaa !13
  %111 = load ptr, ptr %3, align 8, !tbaa !11
  %112 = getelementptr inbounds i16, ptr %111, i64 2
  %113 = load i16, ptr %112, align 2, !tbaa !19
  %114 = sext i16 %113 to i32
  %115 = mul i32 21407, %114
  %116 = load i32, ptr %8, align 4, !tbaa !13
  %117 = sub i32 %116, %115
  store i32 %117, ptr %8, align 4, !tbaa !13
  %118 = load ptr, ptr %3, align 8, !tbaa !11
  %119 = getelementptr inbounds i16, ptr %118, i64 1
  %120 = load i16, ptr %119, align 2, !tbaa !19
  %121 = sext i16 %120 to i32
  %122 = mul nsw i32 22725, %121
  store i32 %122, ptr %9, align 4, !tbaa !13
  %123 = load ptr, ptr %3, align 8, !tbaa !11
  %124 = getelementptr inbounds i16, ptr %123, i64 3
  %125 = load i16, ptr %124, align 2, !tbaa !19
  %126 = sext i16 %125 to i32
  %127 = mul nsw i32 19266, %126
  %128 = load i32, ptr %9, align 4, !tbaa !13
  %129 = add i32 %128, %127
  store i32 %129, ptr %9, align 4, !tbaa !13
  %130 = load ptr, ptr %3, align 8, !tbaa !11
  %131 = getelementptr inbounds i16, ptr %130, i64 1
  %132 = load i16, ptr %131, align 2, !tbaa !19
  %133 = sext i16 %132 to i32
  %134 = mul nsw i32 19266, %133
  store i32 %134, ptr %10, align 4, !tbaa !13
  %135 = load ptr, ptr %3, align 8, !tbaa !11
  %136 = getelementptr inbounds i16, ptr %135, i64 3
  %137 = load i16, ptr %136, align 2, !tbaa !19
  %138 = sext i16 %137 to i32
  %139 = mul nsw i32 -4520, %138
  %140 = load i32, ptr %10, align 4, !tbaa !13
  %141 = add i32 %140, %139
  store i32 %141, ptr %10, align 4, !tbaa !13
  %142 = load ptr, ptr %3, align 8, !tbaa !11
  %143 = getelementptr inbounds i16, ptr %142, i64 1
  %144 = load i16, ptr %143, align 2, !tbaa !19
  %145 = sext i16 %144 to i32
  %146 = mul nsw i32 12873, %145
  store i32 %146, ptr %11, align 4, !tbaa !13
  %147 = load ptr, ptr %3, align 8, !tbaa !11
  %148 = getelementptr inbounds i16, ptr %147, i64 3
  %149 = load i16, ptr %148, align 2, !tbaa !19
  %150 = sext i16 %149 to i32
  %151 = mul nsw i32 -22725, %150
  %152 = load i32, ptr %11, align 4, !tbaa !13
  %153 = add i32 %152, %151
  store i32 %153, ptr %11, align 4, !tbaa !13
  %154 = load ptr, ptr %3, align 8, !tbaa !11
  %155 = getelementptr inbounds i16, ptr %154, i64 1
  %156 = load i16, ptr %155, align 2, !tbaa !19
  %157 = sext i16 %156 to i32
  %158 = mul nsw i32 4520, %157
  store i32 %158, ptr %12, align 4, !tbaa !13
  %159 = load ptr, ptr %3, align 8, !tbaa !11
  %160 = getelementptr inbounds i16, ptr %159, i64 3
  %161 = load i16, ptr %160, align 2, !tbaa !19
  %162 = sext i16 %161 to i32
  %163 = mul nsw i32 -12873, %162
  %164 = load i32, ptr %12, align 4, !tbaa !13
  %165 = add i32 %164, %163
  store i32 %165, ptr %12, align 4, !tbaa !13
  %166 = load ptr, ptr %3, align 8, !tbaa !11
  %167 = getelementptr inbounds i16, ptr %166, i64 4
  %168 = load i64, ptr %167, align 8, !tbaa !18
  %169 = icmp ne i64 %168, 0
  br i1 %169, label %170, label %279

170:                                              ; preds = %76
  %171 = load ptr, ptr %3, align 8, !tbaa !11
  %172 = getelementptr inbounds i16, ptr %171, i64 4
  %173 = load i16, ptr %172, align 2, !tbaa !19
  %174 = sext i16 %173 to i32
  %175 = mul i32 16383, %174
  %176 = load ptr, ptr %3, align 8, !tbaa !11
  %177 = getelementptr inbounds i16, ptr %176, i64 6
  %178 = load i16, ptr %177, align 2, !tbaa !19
  %179 = sext i16 %178 to i32
  %180 = mul i32 8867, %179
  %181 = add i32 %175, %180
  %182 = load i32, ptr %5, align 4, !tbaa !13
  %183 = add i32 %182, %181
  store i32 %183, ptr %5, align 4, !tbaa !13
  %184 = load ptr, ptr %3, align 8, !tbaa !11
  %185 = getelementptr inbounds i16, ptr %184, i64 4
  %186 = load i16, ptr %185, align 2, !tbaa !19
  %187 = sext i16 %186 to i32
  %188 = mul i32 -16383, %187
  %189 = load ptr, ptr %3, align 8, !tbaa !11
  %190 = getelementptr inbounds i16, ptr %189, i64 6
  %191 = load i16, ptr %190, align 2, !tbaa !19
  %192 = sext i16 %191 to i32
  %193 = mul i32 21407, %192
  %194 = sub i32 %188, %193
  %195 = load i32, ptr %6, align 4, !tbaa !13
  %196 = add i32 %195, %194
  store i32 %196, ptr %6, align 4, !tbaa !13
  %197 = load ptr, ptr %3, align 8, !tbaa !11
  %198 = getelementptr inbounds i16, ptr %197, i64 4
  %199 = load i16, ptr %198, align 2, !tbaa !19
  %200 = sext i16 %199 to i32
  %201 = mul i32 -16383, %200
  %202 = load ptr, ptr %3, align 8, !tbaa !11
  %203 = getelementptr inbounds i16, ptr %202, i64 6
  %204 = load i16, ptr %203, align 2, !tbaa !19
  %205 = sext i16 %204 to i32
  %206 = mul i32 21407, %205
  %207 = add i32 %201, %206
  %208 = load i32, ptr %7, align 4, !tbaa !13
  %209 = add i32 %208, %207
  store i32 %209, ptr %7, align 4, !tbaa !13
  %210 = load ptr, ptr %3, align 8, !tbaa !11
  %211 = getelementptr inbounds i16, ptr %210, i64 4
  %212 = load i16, ptr %211, align 2, !tbaa !19
  %213 = sext i16 %212 to i32
  %214 = mul i32 16383, %213
  %215 = load ptr, ptr %3, align 8, !tbaa !11
  %216 = getelementptr inbounds i16, ptr %215, i64 6
  %217 = load i16, ptr %216, align 2, !tbaa !19
  %218 = sext i16 %217 to i32
  %219 = mul i32 8867, %218
  %220 = sub i32 %214, %219
  %221 = load i32, ptr %8, align 4, !tbaa !13
  %222 = add i32 %221, %220
  store i32 %222, ptr %8, align 4, !tbaa !13
  %223 = load ptr, ptr %3, align 8, !tbaa !11
  %224 = getelementptr inbounds i16, ptr %223, i64 5
  %225 = load i16, ptr %224, align 2, !tbaa !19
  %226 = sext i16 %225 to i32
  %227 = mul nsw i32 12873, %226
  %228 = load i32, ptr %9, align 4, !tbaa !13
  %229 = add i32 %228, %227
  store i32 %229, ptr %9, align 4, !tbaa !13
  %230 = load ptr, ptr %3, align 8, !tbaa !11
  %231 = getelementptr inbounds i16, ptr %230, i64 7
  %232 = load i16, ptr %231, align 2, !tbaa !19
  %233 = sext i16 %232 to i32
  %234 = mul nsw i32 4520, %233
  %235 = load i32, ptr %9, align 4, !tbaa !13
  %236 = add i32 %235, %234
  store i32 %236, ptr %9, align 4, !tbaa !13
  %237 = load ptr, ptr %3, align 8, !tbaa !11
  %238 = getelementptr inbounds i16, ptr %237, i64 5
  %239 = load i16, ptr %238, align 2, !tbaa !19
  %240 = sext i16 %239 to i32
  %241 = mul nsw i32 -22725, %240
  %242 = load i32, ptr %10, align 4, !tbaa !13
  %243 = add i32 %242, %241
  store i32 %243, ptr %10, align 4, !tbaa !13
  %244 = load ptr, ptr %3, align 8, !tbaa !11
  %245 = getelementptr inbounds i16, ptr %244, i64 7
  %246 = load i16, ptr %245, align 2, !tbaa !19
  %247 = sext i16 %246 to i32
  %248 = mul nsw i32 -12873, %247
  %249 = load i32, ptr %10, align 4, !tbaa !13
  %250 = add i32 %249, %248
  store i32 %250, ptr %10, align 4, !tbaa !13
  %251 = load ptr, ptr %3, align 8, !tbaa !11
  %252 = getelementptr inbounds i16, ptr %251, i64 5
  %253 = load i16, ptr %252, align 2, !tbaa !19
  %254 = sext i16 %253 to i32
  %255 = mul nsw i32 4520, %254
  %256 = load i32, ptr %11, align 4, !tbaa !13
  %257 = add i32 %256, %255
  store i32 %257, ptr %11, align 4, !tbaa !13
  %258 = load ptr, ptr %3, align 8, !tbaa !11
  %259 = getelementptr inbounds i16, ptr %258, i64 7
  %260 = load i16, ptr %259, align 2, !tbaa !19
  %261 = sext i16 %260 to i32
  %262 = mul nsw i32 19266, %261
  %263 = load i32, ptr %11, align 4, !tbaa !13
  %264 = add i32 %263, %262
  store i32 %264, ptr %11, align 4, !tbaa !13
  %265 = load ptr, ptr %3, align 8, !tbaa !11
  %266 = getelementptr inbounds i16, ptr %265, i64 5
  %267 = load i16, ptr %266, align 2, !tbaa !19
  %268 = sext i16 %267 to i32
  %269 = mul nsw i32 19266, %268
  %270 = load i32, ptr %12, align 4, !tbaa !13
  %271 = add i32 %270, %269
  store i32 %271, ptr %12, align 4, !tbaa !13
  %272 = load ptr, ptr %3, align 8, !tbaa !11
  %273 = getelementptr inbounds i16, ptr %272, i64 7
  %274 = load i16, ptr %273, align 2, !tbaa !19
  %275 = sext i16 %274 to i32
  %276 = mul nsw i32 -22725, %275
  %277 = load i32, ptr %12, align 4, !tbaa !13
  %278 = add i32 %277, %276
  store i32 %278, ptr %12, align 4, !tbaa !13
  br label %279

279:                                              ; preds = %170, %76
  %280 = load i32, ptr %5, align 4, !tbaa !13
  %281 = load i32, ptr %9, align 4, !tbaa !13
  %282 = add i32 %280, %281
  %283 = load i32, ptr %4, align 4, !tbaa !13
  %284 = add nsw i32 11, %283
  %285 = ashr i32 %282, %284
  %286 = trunc i32 %285 to i16
  %287 = load ptr, ptr %3, align 8, !tbaa !11
  %288 = getelementptr inbounds i16, ptr %287, i64 0
  store i16 %286, ptr %288, align 2, !tbaa !19
  %289 = load i32, ptr %5, align 4, !tbaa !13
  %290 = load i32, ptr %9, align 4, !tbaa !13
  %291 = sub i32 %289, %290
  %292 = load i32, ptr %4, align 4, !tbaa !13
  %293 = add nsw i32 11, %292
  %294 = ashr i32 %291, %293
  %295 = trunc i32 %294 to i16
  %296 = load ptr, ptr %3, align 8, !tbaa !11
  %297 = getelementptr inbounds i16, ptr %296, i64 7
  store i16 %295, ptr %297, align 2, !tbaa !19
  %298 = load i32, ptr %6, align 4, !tbaa !13
  %299 = load i32, ptr %10, align 4, !tbaa !13
  %300 = add i32 %298, %299
  %301 = load i32, ptr %4, align 4, !tbaa !13
  %302 = add nsw i32 11, %301
  %303 = ashr i32 %300, %302
  %304 = trunc i32 %303 to i16
  %305 = load ptr, ptr %3, align 8, !tbaa !11
  %306 = getelementptr inbounds i16, ptr %305, i64 1
  store i16 %304, ptr %306, align 2, !tbaa !19
  %307 = load i32, ptr %6, align 4, !tbaa !13
  %308 = load i32, ptr %10, align 4, !tbaa !13
  %309 = sub i32 %307, %308
  %310 = load i32, ptr %4, align 4, !tbaa !13
  %311 = add nsw i32 11, %310
  %312 = ashr i32 %309, %311
  %313 = trunc i32 %312 to i16
  %314 = load ptr, ptr %3, align 8, !tbaa !11
  %315 = getelementptr inbounds i16, ptr %314, i64 6
  store i16 %313, ptr %315, align 2, !tbaa !19
  %316 = load i32, ptr %7, align 4, !tbaa !13
  %317 = load i32, ptr %11, align 4, !tbaa !13
  %318 = add i32 %316, %317
  %319 = load i32, ptr %4, align 4, !tbaa !13
  %320 = add nsw i32 11, %319
  %321 = ashr i32 %318, %320
  %322 = trunc i32 %321 to i16
  %323 = load ptr, ptr %3, align 8, !tbaa !11
  %324 = getelementptr inbounds i16, ptr %323, i64 2
  store i16 %322, ptr %324, align 2, !tbaa !19
  %325 = load i32, ptr %7, align 4, !tbaa !13
  %326 = load i32, ptr %11, align 4, !tbaa !13
  %327 = sub i32 %325, %326
  %328 = load i32, ptr %4, align 4, !tbaa !13
  %329 = add nsw i32 11, %328
  %330 = ashr i32 %327, %329
  %331 = trunc i32 %330 to i16
  %332 = load ptr, ptr %3, align 8, !tbaa !11
  %333 = getelementptr inbounds i16, ptr %332, i64 5
  store i16 %331, ptr %333, align 2, !tbaa !19
  %334 = load i32, ptr %8, align 4, !tbaa !13
  %335 = load i32, ptr %12, align 4, !tbaa !13
  %336 = add i32 %334, %335
  %337 = load i32, ptr %4, align 4, !tbaa !13
  %338 = add nsw i32 11, %337
  %339 = ashr i32 %336, %338
  %340 = trunc i32 %339 to i16
  %341 = load ptr, ptr %3, align 8, !tbaa !11
  %342 = getelementptr inbounds i16, ptr %341, i64 3
  store i16 %340, ptr %342, align 2, !tbaa !19
  %343 = load i32, ptr %8, align 4, !tbaa !13
  %344 = load i32, ptr %12, align 4, !tbaa !13
  %345 = sub i32 %343, %344
  %346 = load i32, ptr %4, align 4, !tbaa !13
  %347 = add nsw i32 11, %346
  %348 = ashr i32 %345, %347
  %349 = trunc i32 %348 to i16
  %350 = load ptr, ptr %3, align 8, !tbaa !11
  %351 = getelementptr inbounds i16, ptr %350, i64 4
  store i16 %349, ptr %351, align 2, !tbaa !19
  store i32 0, ptr %14, align 4
  br label %352

352:                                              ; preds = %279, %60
  call void @llvm.lifetime.end.p0(i64 4, ptr %12) #4
  call void @llvm.lifetime.end.p0(i64 4, ptr %11) #4
  call void @llvm.lifetime.end.p0(i64 4, ptr %10) #4
  call void @llvm.lifetime.end.p0(i64 4, ptr %9) #4
  call void @llvm.lifetime.end.p0(i64 4, ptr %8) #4
  call void @llvm.lifetime.end.p0(i64 4, ptr %7) #4
  call void @llvm.lifetime.end.p0(i64 4, ptr %6) #4
  call void @llvm.lifetime.end.p0(i64 4, ptr %5) #4
  %353 = load i32, ptr %14, align 4
  switch i32 %353, label %355 [
    i32 0, label %354
    i32 1, label %354
  ]

354:                                              ; preds = %352, %352
  ret void

355:                                              ; preds = %352
  unreachable
}